target datalayout = "e-m:e-p270:32:32-p271:32:32-p272:64:64-i64:64-i128:128-f80:128-n8:16:32:64-S128"
target triple = "x86_64-pc-linux-gnu"

%struct.qtest_fault = type { ptr, %struct.quic_pkt_hdr_st, %struct.ossl_qtx_iovec_st, i64, ptr, ptr, ptr, i64, i64, ptr, ptr, ptr, ptr, ptr, ptr, ptr, ptr, %struct.bio_msg_st, i64, %struct.noise_args_data_st }
%struct.quic_pkt_hdr_st = type { i32, i32, %struct.quic_conn_id_st, %struct.quic_conn_id_st, [4 x i8], ptr, i64, i64, ptr }
%struct.quic_conn_id_st = type { i8, [20 x i8] }
%struct.ossl_qtx_iovec_st = type { ptr, i64 }
%struct.bio_msg_st = type { ptr, i64, ptr, ptr, i64 }
%struct.noise_args_data_st = type { ptr, ptr, ptr, i32 }

; Function Attrs: nounwind uwtable
define dso_local i32 @qtest_fault_set_handshake_listener(ptr noundef %0, ptr noundef %1, ptr noundef %2) #0 {
  %4 = alloca ptr, align 8
  %5 = alloca ptr, align 8
  %6 = alloca ptr, align 8
  store ptr %0, ptr %4, align 8, !tbaa !33
  store ptr %1, ptr %5, align 8, !tbaa !56
  store ptr %2, ptr %6, align 8, !tbaa !56
  %7 = load ptr, ptr %5, align 8, !tbaa !56
  %8 = load ptr, ptr %4, align 8, !tbaa !33
  %9 = getelementptr inbounds nuw %struct.qtest_fault, ptr %8, i32 0, i32 9
  store ptr %7, ptr %9, align 8, !tbaa !107
  %10 = load ptr, ptr %6, align 8, !tbaa !56
  %11 = load ptr, ptr %4, align 8, !tbaa !33
  %12 = getelementptr inbounds nuw %struct.qtest_fault, ptr %11, i32 0, i32 10
  store ptr %10, ptr %12, align 8, !tbaa !108
  %13 = load ptr, ptr %4, align 8, !tbaa !33
  %14 = getelementptr inbounds nuw %struct.qtest_fault, ptr %13, i32 0, i32 0
  %15 = load ptr, ptr %14, align 8, !tbaa !59
  %16 = load ptr, ptr %4, align 8, !tbaa !33
  %17 = call i32 @ossl_quic_tserver_set_handshake_mutator(ptr noundef %15, ptr noundef @handshake_mutate, ptr noundef @handshake_finish, ptr noundef %16)
  ret i32 %17
}